target datalayout = "e-m:e-p270:32:32-p271:32:32-p272:64:64-i64:64-i128:128-f80:128-n8:16:32:64-S128"
target triple = "x86_64-pc-linux-gnu"

%class.PreservedMark = type { ptr, %class.markWord }
%class.markWord = type { i64 }
%class.PreservedMarks = type { %class.Stack }
%class.Stack = type { ptr, %class.StackBase, ptr, ptr }
%class.StackBase = type { i64, i64, i64, i64, i64, i64 }
%class.oopDesc = type { %class.markWord, %"union.oopDesc::_metadata" }
%"union.oopDesc::_metadata" = type { ptr }
%"struct.Atomic::StoreImpl" = type { i8 }
%"struct.Atomic::PlatformStore" = type { i8 }
%"struct.Atomic::PlatformAdd" = type { i8 }

; Function Attrs: mustprogress nounwind uwtable
define linkonce_odr hidden noundef i64 @_ZNK8markWord5valueEv(ptr noundef nonnull align 8 dereferenceable(8) %0) #1 comdat align 2 {
  %2 = alloca ptr, align 8
  store ptr %0, ptr %2, align 8
  %3 = load ptr, ptr %2, align 8
  %4 = getelementptr inbounds %class.markWord, ptr %3, i32 0, i32 0
  %5 = load i64, ptr %4, align 8
  ret i64 %5
}

; Function Attrs: mustprogress nounwind uwtable
define linkonce_odr hidden noundef i64 @_Z10align_downImmTnNSt9enable_ifIXcvbsr3std11is_integralIT_EE5valueEiE4typeELi0EES1_S1_T0_(i64 noundef %0, i64 noundef %1) #1 comdat {
  %3 = alloca i64, align 8
  %4 = alloca i64, align 8
  %5 = alloca i64, align 8
  store i64 %0, ptr %3, align 8
  store i64 %1, ptr %4, align 8
  %6 = load i64, ptr %3, align 8
  %7 = load i64, ptr %4, align 8
  %8 = call noundef i64 @_ZL14alignment_maskImTnNSt9enable_ifIXcvbsr3std11is_integralIT_EE5valueEiE4typeELi0EES1_S1_(i64 noundef %7)
  %9 = xor i64 %8, -1
  %10 = and i64 %6, %9
  store i64 %10, ptr %5, align 8
  %11 = load i64, ptr %5, align 8
  ret i64 %11
}

; Function Attrs: mustprogress nounwind uwtable
define linkonce_odr hidden noundef i64 @_Z12checked_castImmET_T0_(i64 noundef %0) #1 comdat {
  %2 = alloca i64, align 8
  %3 = alloca i64, align 8
  store i64 %0, ptr %2, align 8
  %4 = load i64, ptr %2, align 8
  store i64 %4, ptr %3, align 8
  %5 = load i64, ptr %3, align 8
  ret i64 %5
}

; Function Attrs: mustprogress nounwind uwtable
define internal noundef i64 @_ZL14alignment_maskImTnNSt9enable_ifIXcvbsr3std11is_integralIT_EE5valueEiE4typeELi0EES1_S1_(i64 noundef %0) #1 {
  %2 = alloca i64, align 8
  store i64 %0, ptr %2, align 8
  %3 = load i64, ptr %2, align 8
  %4 = sub i64 %3, 1
  ret i64 %4
}

; Function Attrs: mustprogress nounwind uwtable
define linkonce_odr hidden void @_ZNK6Atomic13PlatformStoreILm8EEclImEEvPVT_S3_(ptr noundef nonnull align 1 dereferenceable(1) %0, ptr noundef %1, i64 noundef %2) #1 comdat align 2 {
  %4 = alloca ptr, align 8
  %5 = alloca ptr, align 8
  %6 = alloca i64, align 8
  store ptr %0, ptr %4, align 8
  store ptr %1, ptr %5, align 8
  store i64 %2, ptr %6, align 8
  %7 = load i64, ptr %6, align 8
  %8 = load ptr, ptr %5, align 8
  store volatile i64 %7, ptr %8, align 8
  ret void
}

; Function Attrs: mustprogress nounwind uwtable
define linkonce_odr hidden noundef i64 @_ZN20PrimitiveConversions9TranslateI8markWordvE5decayERKS1_(ptr noundef nonnull align 8 dereferenceable(8) %0) #1 comdat align 2 {
  %2 = alloca ptr, align 8
  store ptr %0, ptr %2, align 8
  %3 = load ptr, ptr %2, align 8
  %4 = call noundef i64 @_ZNK8markWord5valueEv(ptr noundef nonnull align 8 dereferenceable(8) %3)
  ret i64 %4
}

; Function Attrs: mustprogress nounwind uwtable
define linkonce_odr hidden noundef i64 @_Z8align_upImmTnNSt9enable_ifIXcvbsr3std11is_integralIT_EE5valueEiE4typeELi0EES1_S1_T0_(i64 noundef %0, i64 noundef %1) #1 comdat {
  %3 = alloca i64, align 8
  %4 = alloca i64, align 8
  %5 = alloca i64, align 8
  store i64 %0, ptr %3, align 8
  store i64 %1, ptr %4, align 8
  %6 = load i64, ptr %3, align 8
  %7 = load i64, ptr %4, align 8
  %8 = call noundef i64 @_ZL14alignment_maskImTnNSt9enable_ifIXcvbsr3std11is_integralIT_EE5valueEiE4typeELi0EES1_S1_(i64 noundef %7)
  %9 = add i64 %6, %8
  %10 = call noundef i64 @_Z12checked_castImmET_T0_(i64 noundef %9)
  store i64 %10, ptr %5, align 8
  %11 = load i64, ptr %5, align 8
  %12 = load i64, ptr %4, align 8
  %13 = call noundef i64 @_Z10align_downImmTnNSt9enable_ifIXcvbsr3std11is_integralIT_EE5valueEiE4typeELi0EES1_S1_T0_(i64 noundef %11, i64 noundef %12)
  ret i64 %13
}

; Function Attrs: mustprogress nounwind uwtable
define linkonce_odr hidden void @_ZNK6Atomic9StoreImplI8markWordS1_NS_13PlatformStoreILm8EEEvEclEPVS1_S1_(ptr noundef nonnull align 1 dereferenceable(1) %0, ptr noundef %1, i64 %2) #1 comdat align 2 {
  %4 = alloca %class.markWord, align 8
  %5 = alloca ptr, align 8
  %6 = alloca ptr, align 8
  %7 = alloca %"struct.Atomic::PlatformStore", align 1
  %8 = getelementptr inbounds %class.markWord, ptr %4, i32 0, i32 0
  store i64 %2, ptr %8, align 8
  store ptr %0, ptr %5, align 8
  store ptr %1, ptr %6, align 8
  %9 = load ptr, ptr %6, align 8
  %10 = call noundef i64 @_ZN20PrimitiveConversions9TranslateI8markWordvE5decayERKS1_(ptr noundef nonnull align 8 dereferenceable(8) %4)
  call void @_ZNK6Atomic13PlatformStoreILm8EEclImEEvPVT_S3_(ptr noundef nonnull align 1 dereferenceable(1) %7, ptr noundef %9, i64 noundef %10)
  ret void
}

; Function Attrs: mustprogress nounwind uwtable
define linkonce_odr hidden noundef i64 @_ZNK5StackI13PreservedMarkL8MEMFLAGS5EE11link_offsetEv(ptr noundef nonnull align 8 dereferenceable(72) %0) #1 comdat align 2 {
  %2 = alloca ptr, align 8
  store ptr %0, ptr %2, align 8
  %3 = load ptr, ptr %2, align 8
  %4 = getelementptr inbounds i8, ptr %3, i64 8
  %5 = getelementptr inbounds %class.StackBase, ptr %4, i32 0, i32 0
  %6 = load i64, ptr %5, align 8
  %7 = mul i64 %6, 16
  %8 = call noundef i64 @_Z8align_upImmTnNSt9enable_ifIXcvbsr3std11is_integralIT_EE5valueEiE4typeELi0EES1_S1_T0_(i64 noundef %7, i64 noundef 8)
  ret i64 %8
}

; Function Attrs: mustprogress nounwind uwtable
define linkonce_odr hidden noundef ptr @_ZNK5StackI13PreservedMarkL8MEMFLAGS5EE9link_addrEPS0_(ptr noundef nonnull align 8 dereferenceable(72) %0, ptr noundef %1) #1 comdat align 2 {
  %3 = alloca ptr, align 8
  %4 = alloca ptr, align 8
  store ptr %0, ptr %3, align 8
  store ptr %1, ptr %4, align 8
  %5 = load ptr, ptr %3, align 8
  %6 = load ptr, ptr %4, align 8
  %7 = call noundef i64 @_ZNK5StackI13PreservedMarkL8MEMFLAGS5EE11link_offsetEv(ptr noundef nonnull align 8 dereferenceable(72) %5)
  %8 = getelementptr inbounds i8, ptr %6, i64 %7
  ret ptr %8
}

; Function Attrs: mustprogress nounwind uwtable
define linkonce_odr hidden noundef i64 @_ZNK6Atomic11PlatformAddILm8EE14fetch_then_addImmEET_PVS3_T0_19atomic_memory_order(ptr noundef nonnull align 1 dereferenceable(1) %0, ptr noundef %1, i64 noundef %2, i32 noundef %3) #1 comdat align 2 {
  %5 = alloca ptr, align 8
  %6 = alloca ptr, align 8
  %7 = alloca i64, align 8
  %8 = alloca i32, align 4
  %9 = alloca i64, align 8
  store ptr %0, ptr %5, align 8
  store ptr %1, ptr %6, align 8
  store i64 %2, ptr %7, align 8
  store i32 %3, ptr %8, align 4
  %10 = load i64, ptr %7, align 8
  %11 = load ptr, ptr %6, align 8
  %12 = call i64 asm sideeffect "lock xaddq $0,($2)", "=r,0,r,~{cc},~{memory},~{dirflag},~{fpsr},~{flags}"(i64 %10, ptr %11) #5, !srcloc !13
  store i64 %12, ptr %9, align 8
  %13 = load i64, ptr %9, align 8
  ret i64 %13
}

; Function Attrs: mustprogress nounwind uwtable
define linkonce_odr hidden void @_ZN6Atomic5storeI8markWordS1_EEvPVT_T0_(ptr noundef %0, i64 %1) #1 comdat align 2 {
  %3 = alloca %class.markWord, align 8
  %4 = alloca ptr, align 8
  %5 = alloca %"struct.Atomic::StoreImpl", align 1
  %6 = alloca %class.markWord, align 8
  %7 = getelementptr inbounds %class.markWord, ptr %3, i32 0, i32 0
  store i64 %1, ptr %7, align 8
  store ptr %0, ptr %4, align 8
  %8 = load ptr, ptr %4, align 8
  call void @llvm.memcpy.p0.p0.i64(ptr align 8 %6, ptr align 8 %3, i64 8, i1 false)
  %9 = getelementptr inbounds %class.markWord, ptr %6, i32 0, i32 0
  %10 = load i64, ptr %9, align 8
  call void @_ZNK6Atomic9StoreImplI8markWordS1_NS_13PlatformStoreILm8EEEvEclEPVS1_S1_(ptr noundef nonnull align 1 dereferenceable(1) %5, ptr noundef %8, i64 %10)
  ret void
}

; Function Attrs: mustprogress nounwind uwtable
define linkonce_odr hidden noundef i64 @_ZNK5StackI13PreservedMarkL8MEMFLAGS5EE13segment_bytesEv(ptr noundef nonnull align 8 dereferenceable(72) %0) #1 comdat align 2 {
  %2 = alloca ptr, align 8
  store ptr %0, ptr %2, align 8
  %3 = load ptr, ptr %2, align 8
  %4 = call noundef i64 @_ZNK5StackI13PreservedMarkL8MEMFLAGS5EE11link_offsetEv(ptr noundef nonnull align 8 dereferenceable(72) %3)
  %5 = add i64 %4, 8
  ret i64 %5
}

; Function Attrs: mustprogress nounwind uwtable
define linkonce_odr hidden noundef ptr @_ZN5StackI13PreservedMarkL8MEMFLAGS5EE8set_linkEPS0_S3_(ptr noundef nonnull align 8 dereferenceable(72) %0, ptr noundef %1, ptr noundef %2) #1 comdat align 2 {
  %4 = alloca ptr, align 8
  %5 = alloca ptr, align 8
  %6 = alloca ptr, align 8
  store ptr %0, ptr %4, align 8
  store ptr %1, ptr %5, align 8
  store ptr %2, ptr %6, align 8
  %7 = load ptr, ptr %4, align 8
  %8 = load ptr, ptr %6, align 8
  %9 = load ptr, ptr %5, align 8
  %10 = call noundef ptr @_ZNK5StackI13PreservedMarkL8MEMFLAGS5EE9link_addrEPS0_(ptr noundef nonnull align 8 dereferenceable(72) %7, ptr noundef %9)
  store ptr %8, ptr %10, align 8
  %11 = load ptr, ptr %5, align 8
  ret ptr %11
}

; Function Attrs: mustprogress nounwind uwtable
define linkonce_odr hidden noundef ptr @_ZNK5StackI13PreservedMarkL8MEMFLAGS5EE8get_linkEPS0_(ptr noundef nonnull align 8 dereferenceable(72) %0, ptr noundef %1) #1 comdat align 2 {
  %3 = alloca ptr, align 8
  %4 = alloca ptr, align 8
  store ptr %0, ptr %3, align 8
  store ptr %1, ptr %4, align 8
  %5 = load ptr, ptr %3, align 8
  %6 = load ptr, ptr %4, align 8
  %7 = call noundef ptr @_ZNK5StackI13PreservedMarkL8MEMFLAGS5EE9link_addrEPS0_(ptr noundef nonnull align 8 dereferenceable(72) %5, ptr noundef %6)
  %8 = load ptr, ptr %7, align 8
  ret ptr %8
}

; Function Attrs: mustprogress nounwind uwtable
define linkonce_odr hidden noundef i64 @_ZNK6Atomic11PlatformAddILm8EE14add_then_fetchImmEET_PVS3_T0_19atomic_memory_order(ptr noundef nonnull align 1 dereferenceable(1) %0, ptr noundef %1, i64 noundef %2, i32 noundef %3) #1 comdat align 2 {
  %5 = alloca ptr, align 8
  %6 = alloca ptr, align 8
  %7 = alloca i64, align 8
  %8 = alloca i32, align 4
  store ptr %0, ptr %5, align 8
  store ptr %1, ptr %6, align 8
  store i64 %2, ptr %7, align 8
  store i32 %3, ptr %8, align 4
  %9 = load ptr, ptr %5, align 8
  %10 = load ptr, ptr %6, align 8
  %11 = load i64, ptr %7, align 8
  %12 = load i32, ptr %8, align 4
  %13 = call noundef i64 @_ZNK6Atomic11PlatformAddILm8EE14fetch_then_addImmEET_PVS3_T0_19atomic_memory_order(ptr noundef nonnull align 1 dereferenceable(1) %9, ptr noundef %10, i64 noundef %11, i32 noundef %12)
  %14 = load i64, ptr %7, align 8
  %15 = add i64 %13, %14
  ret i64 %15
}

; Function Attrs: mustprogress nounwind uwtable
define linkonce_odr hidden void @_ZN7oopDesc8set_markE8markWord(ptr noundef nonnull align 8 dereferenceable(16) %0, i64 %1) #1 comdat align 2 {
  %3 = alloca %class.markWord, align 8
  %4 = alloca ptr, align 8
  %5 = alloca %class.markWord, align 8
  %6 = getelementptr inbounds %class.markWord, ptr %3, i32 0, i32 0
  store i64 %1, ptr %6, align 8
  store ptr %0, ptr %4, align 8
  %7 = load ptr, ptr %4, align 8
  %8 = getelementptr inbounds %class.oopDesc, ptr %7, i32 0, i32 0
  call void @llvm.memcpy.p0.p0.i64(ptr align 8 %5, ptr align 8 %3, i64 8, i1 false)
  %9 = getelementptr inbounds %class.markWord, ptr %5, i32 0, i32 0
  %10 = load i64, ptr %9, align 8
  call void @_ZN6Atomic5storeI8markWordS1_EEvPVT_T0_(ptr noundef %8, i64 %10)
  ret void
}

; Function Attrs: mustprogress nounwind uwtable
define linkonce_odr hidden void @_ZN5StackI13PreservedMarkL8MEMFLAGS5EE11pop_segmentEv(ptr noundef nonnull align 8 dereferenceable(72) %0) #1 comdat align 2 {
  %2 = alloca ptr, align 8
  %3 = alloca ptr, align 8
  %4 = alloca i8, align 1
  store ptr %0, ptr %2, align 8
  %5 = load ptr, ptr %2, align 8
  %6 = getelementptr inbounds %class.Stack, ptr %5, i32 0, i32 2
  %7 = load ptr, ptr %6, align 8
  %8 = call noundef ptr @_ZNK5StackI13PreservedMarkL8MEMFLAGS5EE8get_linkEPS0_(ptr noundef nonnull align 8 dereferenceable(72) %5, ptr noundef %7)
  store ptr %8, ptr %3, align 8
  %9 = getelementptr inbounds i8, ptr %5, i64 8
  %10 = getelementptr inbounds %class.StackBase, ptr %9, i32 0, i32 5
  %11 = load i64, ptr %10, align 8
  %12 = getelementptr inbounds i8, ptr %5, i64 8
  %13 = getelementptr inbounds %class.StackBase, ptr %12, i32 0, i32 2
  %14 = load i64, ptr %13, align 8
  %15 = icmp ult i64 %11, %14
  br i1 %15, label %16, label %27

16:                                               ; preds = %1
  %17 = getelementptr inbounds %class.Stack, ptr %5, i32 0, i32 2
  %18 = load ptr, ptr %17, align 8
  %19 = getelementptr inbounds %class.Stack, ptr %5, i32 0, i32 3
  %20 = load ptr, ptr %19, align 8
  %21 = call noundef ptr @_ZN5StackI13PreservedMarkL8MEMFLAGS5EE8set_linkEPS0_S3_(ptr noundef nonnull align 8 dereferenceable(72) %5, ptr noundef %18, ptr noundef %20)
  %22 = getelementptr inbounds %class.Stack, ptr %5, i32 0, i32 3
  store ptr %21, ptr %22, align 8
  %23 = getelementptr inbounds i8, ptr %5, i64 8
  %24 = getelementptr inbounds %class.StackBase, ptr %23, i32 0, i32 5
  %25 = load i64, ptr %24, align 8
  %26 = add i64 %25, 1
  store i64 %26, ptr %24, align 8
  br label %34

27:                                               ; preds = %1
  %28 = getelementptr inbounds %class.Stack, ptr %5, i32 0, i32 2
  %29 = load ptr, ptr %28, align 8
  %30 = call noundef i64 @_ZNK5StackI13PreservedMarkL8MEMFLAGS5EE13segment_bytesEv(ptr noundef nonnull align 8 dereferenceable(72) %5)
  %31 = load ptr, ptr %5, align 8
  %32 = getelementptr inbounds ptr, ptr %31, i64 1
  %33 = load ptr, ptr %32, align 8
  call void %33(ptr noundef nonnull align 8 dereferenceable(72) %5, ptr noundef %29, i64 noundef %30)
  br label %34

34:                                               ; preds = %27, %16
  %35 = load ptr, ptr %3, align 8
  %36 = icmp eq ptr %35, null
  %37 = zext i1 %36 to i8
  store i8 %37, ptr %4, align 1
  %38 = load ptr, ptr %3, align 8
  %39 = getelementptr inbounds %class.Stack, ptr %5, i32 0, i32 2
  store ptr %38, ptr %39, align 8
  %40 = getelementptr inbounds i8, ptr %5, i64 8
  %41 = getelementptr inbounds %class.StackBase, ptr %40, i32 0, i32 0
  %42 = load i64, ptr %41, align 8
  %43 = getelementptr inbounds i8, ptr %5, i64 8
  %44 = getelementptr inbounds %class.StackBase, ptr %43, i32 0, i32 3
  store i64 %42, ptr %44, align 8
  %45 = load i8, ptr %4, align 1
  %46 = trunc i8 %45 to i1
  br i1 %46, label %47, label %48

47:                                               ; preds = %34
  br label %52

48:                                               ; preds = %34
  %49 = getelementptr inbounds i8, ptr %5, i64 8
  %50 = getelementptr inbounds %class.StackBase, ptr %49, i32 0, i32 0
  %51 = load i64, ptr %50, align 8
  br label %52

52:                                               ; preds = %48, %47
  %53 = phi i64 [ 0, %47 ], [ %51, %48 ]
  %54 = getelementptr inbounds i8, ptr %5, i64 8
  %55 = getelementptr inbounds %class.StackBase, ptr %54, i32 0, i32 4
  %56 = load i64, ptr %55, align 8
  %57 = sub i64 %56, %53
  store i64 %57, ptr %55, align 8
  ret void
}

; Function Attrs: mustprogress nounwind uwtable
define linkonce_odr hidden noundef i64 @_ZN6Atomic7AddImplImmvE14add_then_fetchEPVmm19atomic_memory_order(ptr noundef %0, i64 noundef %1, i32 noundef %2) #1 comdat align 2 {
  %4 = alloca ptr, align 8
  %5 = alloca i64, align 8
  %6 = alloca i32, align 4
  %7 = alloca i64, align 8
  %8 = alloca %"struct.Atomic::PlatformAdd", align 1
  store ptr %0, ptr %4, align 8
  store i64 %1, ptr %5, align 8
  store i32 %2, ptr %6, align 4
  %9 = load i64, ptr %5, align 8
  store i64 %9, ptr %7, align 8
  %10 = load ptr, ptr %4, align 8
  %11 = load i64, ptr %7, align 8
  %12 = load i32, ptr %6, align 4
  %13 = call noundef i64 @_ZNK6Atomic11PlatformAddILm8EE14add_then_fetchImmEET_PVS3_T0_19atomic_memory_order(ptr noundef nonnull align 1 dereferenceable(1) %8, ptr noundef %10, i64 noundef %11, i32 noundef %12)
  ret i64 %13
}

; Function Attrs: mustprogress nounwind uwtable
define linkonce_odr hidden void @_ZN14PreservedMarks12assert_emptyEv(ptr noundef nonnull align 8 dereferenceable(72) %0) #1 comdat align 2 {
  %2 = alloca ptr, align 8
  store ptr %0, ptr %2, align 8
  ret void
}

; Function Attrs: mustprogress nounwind uwtable
define linkonce_odr hidden void @_ZNK13PreservedMark8set_markEv(ptr noundef nonnull align 8 dereferenceable(16) %0) #1 comdat align 2 {
  %2 = alloca ptr, align 8
  %3 = alloca %class.markWord, align 8
  store ptr %0, ptr %2, align 8
  %4 = load ptr, ptr %2, align 8
  %5 = getelementptr inbounds %class.PreservedMark, ptr %4, i32 0, i32 0
  %6 = load ptr, ptr %5, align 8
  %7 = getelementptr inbounds %class.PreservedMark, ptr %4, i32 0, i32 1
  call void @llvm.memcpy.p0.p0.i64(ptr align 8 %3, ptr align 8 %7, i64 8, i1 false)
  %8 = getelementptr inbounds %class.markWord, ptr %3, i32 0, i32 0
  %9 = load i64, ptr %8, align 8
  call void @_ZN7oopDesc8set_markE8markWord(ptr noundef nonnull align 8 dereferenceable(16) %6, i64 %9)
  ret void
}

; Function Attrs: mustprogress nounwind uwtable
define linkonce_odr hidden { ptr, i64 } @_ZN5StackI13PreservedMarkL8MEMFLAGS5EE3popEv(ptr noundef nonnull align 8 dereferenceable(72) %0) #1 comdat align 2 {
  %2 = alloca %class.PreservedMark, align 8
  %3 = alloca ptr, align 8
  %4 = alloca i64, align 8
  store ptr %0, ptr %3, align 8
  %5 = load ptr, ptr %3, align 8
  %6 = getelementptr inbounds i8, ptr %5, i64 8
  %7 = getelementptr inbounds %class.StackBase, ptr %6, i32 0, i32 3
  %8 = load i64, ptr %7, align 8
  %9 = add i64 %8, -1
  store i64 %9, ptr %7, align 8
  store i64 %9, ptr %4, align 8
  %10 = getelementptr inbounds %class.Stack, ptr %5, i32 0, i32 2
  %11 = load ptr, ptr %10, align 8
  %12 = load i64, ptr %4, align 8
  %13 = getelementptr inbounds %class.PreservedMark, ptr %11, i64 %12
  call void @llvm.memcpy.p0.p0.i64(ptr align 8 %2, ptr align 8 %13, i64 16, i1 false)
  %14 = load i64, ptr %4, align 8
  %15 = icmp eq i64 %14, 0
  br i1 %15, label %16, label %17

16:                                               ; preds = %1
  call void @_ZN5StackI13PreservedMarkL8MEMFLAGS5EE11pop_segmentEv(ptr noundef nonnull align 8 dereferenceable(72) %5)
  br label %17

17:                                               ; preds = %16, %1
  %18 = load { ptr, i64 }, ptr %2, align 8
  ret { ptr, i64 } %18
}

; Function Attrs: mustprogress nounwind uwtable
define linkonce_odr hidden noundef zeroext i1 @_ZNK5StackI13PreservedMarkL8MEMFLAGS5EE8is_emptyEv(ptr noundef nonnull align 8 dereferenceable(72) %0) #1 comdat align 2 {
  %2 = alloca ptr, align 8
  store ptr %0, ptr %2, align 8
  %3 = load ptr, ptr %2, align 8
  %4 = getelementptr inbounds %class.Stack, ptr %3, i32 0, i32 2
  %5 = load ptr, ptr %4, align 8
  %6 = icmp eq ptr %5, null
  ret i1 %6
}

; Function Attrs: mustprogress nounwind uwtable
define linkonce_odr hidden noundef i64 @_ZNK5StackI13PreservedMarkL8MEMFLAGS5EE4sizeEv(ptr noundef nonnull align 8 dereferenceable(72) %0) #1 comdat align 2 {
  %2 = alloca ptr, align 8
  store ptr %0, ptr %2, align 8
  %3 = load ptr, ptr %2, align 8
  %4 = call noundef zeroext i1 @_ZNK5StackI13PreservedMarkL8MEMFLAGS5EE8is_emptyEv(ptr noundef nonnull align 8 dereferenceable(72) %3)
  br i1 %4, label %5, label %6

5:                                                ; preds = %1
  br label %14

6:                                                ; preds = %1
  %7 = getelementptr inbounds i8, ptr %3, i64 8
  %8 = getelementptr inbounds %class.StackBase, ptr %7, i32 0, i32 4
  %9 = load i64, ptr %8, align 8
  %10 = getelementptr inbounds i8, ptr %3, i64 8
  %11 = getelementptr inbounds %class.StackBase, ptr %10, i32 0, i32 3
  %12 = load i64, ptr %11, align 8
  %13 = add i64 %9, %12
  br label %14

14:                                               ; preds = %6, %5
  %15 = phi i64 [ 0, %5 ], [ %13, %6 ]
  ret i64 %15
}

; Function Attrs: mustprogress nounwind uwtable
define linkonce_odr hidden noundef i64 @_ZN6Atomic3addImmEET_PVS1_T0_19atomic_memory_order(ptr noundef %0, i64 noundef %1, i32 noundef %2) #1 comdat align 2 {
  %4 = alloca ptr, align 8
  %5 = alloca i64, align 8
  %6 = alloca i32, align 4
  store ptr %0, ptr %4, align 8
  store i64 %1, ptr %5, align 8
  store i32 %2, ptr %6, align 4
  %7 = load ptr, ptr %4, align 8
  %8 = load i64, ptr %5, align 8
  %9 = load i32, ptr %6, align 4
  %10 = call noundef i64 @_ZN6Atomic7AddImplImmvE14add_then_fetchEPVmm19atomic_memory_order(ptr noundef %7, i64 noundef %8, i32 noundef %9)
  ret i64 %10
}

; Function Attrs: mustprogress nounwind uwtable
define hidden void @_ZN14PreservedMarks7restoreEv(ptr noundef nonnull align 8 dereferenceable(72) %0) #1 align 2 {
  %2 = alloca ptr, align 8
  %3 = alloca %class.PreservedMark, align 8
  store ptr %0, ptr %2, align 8
  %4 = load ptr, ptr %2, align 8
  br label %5

5:                                                ; preds = %9, %1
  %6 = getelementptr inbounds %class.PreservedMarks, ptr %4, i32 0, i32 0
  %7 = call noundef zeroext i1 @_ZNK5StackI13PreservedMarkL8MEMFLAGS5EE8is_emptyEv(ptr noundef nonnull align 8 dereferenceable(72) %6)
  %8 = xor i1 %7, true
  br i1 %8, label %9, label %16

9:                                                ; preds = %5
  %10 = getelementptr inbounds %class.PreservedMarks, ptr %4, i32 0, i32 0
  %11 = call { ptr, i64 } @_ZN5StackI13PreservedMarkL8MEMFLAGS5EE3popEv(ptr noundef nonnull align 8 dereferenceable(72) %10)
  %12 = getelementptr inbounds { ptr, i64 }, ptr %3, i32 0, i32 0
  %13 = extractvalue { ptr, i64 } %11, 0
  store ptr %13, ptr %12, align 8
  %14 = getelementptr inbounds { ptr, i64 }, ptr %3, i32 0, i32 1
  %15 = extractvalue { ptr, i64 } %11, 1
  store i64 %15, ptr %14, align 8
  call void @_ZNK13PreservedMark8set_markEv(ptr noundef nonnull align 8 dereferenceable(16) %3)
  br label %5, !llvm.loop !6

16:                                               ; preds = %5
  call void @_ZN14PreservedMarks12assert_emptyEv(ptr noundef nonnull align 8 dereferenceable(72) %4)
  ret void
}

; Function Attrs: mustprogress nounwind uwtable
define linkonce_odr hidden noundef i64 @_ZNK14PreservedMarks4sizeEv(ptr noundef nonnull align 8 dereferenceable(72) %0) #1 comdat align 2 {
  %2 = alloca ptr, align 8
  store ptr %0, ptr %2, align 8
  %3 = load ptr, ptr %2, align 8
  %4 = getelementptr inbounds %class.PreservedMarks, ptr %3, i32 0, i32 0
  %5 = call noundef i64 @_ZNK5StackI13PreservedMarkL8MEMFLAGS5EE4sizeEv(ptr noundef nonnull align 8 dereferenceable(72) %4)
  ret i64 %5
}

; Function Attrs: mustprogress nounwind uwtable
define hidden void @_ZN14PreservedMarks21restore_and_incrementEPVm(ptr noundef nonnull align 8 dereferenceable(72) %0, ptr noundef %1) #1 align 2 {
  %3 = alloca ptr, align 8
  %4 = alloca ptr, align 8
  %5 = alloca i64, align 8
  store ptr %0, ptr %3, align 8
  store ptr %1, ptr %4, align 8
  %6 = load ptr, ptr %3, align 8
  %7 = call noundef i64 @_ZNK14PreservedMarks4sizeEv(ptr noundef nonnull align 8 dereferenceable(72) %6)
  store i64 %7, ptr %5, align 8
  call void @_ZN14PreservedMarks7restoreEv(ptr noundef nonnull align 8 dereferenceable(72) %6)
  %8 = load i64, ptr %5, align 8
  %9 = icmp ugt i64 %8, 0
  br i1 %9, label %10, label %14

10:                                               ; preds = %2
  %11 = load ptr, ptr %4, align 8
  %12 = load i64, ptr %5, align 8
  %13 = call noundef i64 @_ZN6Atomic3addImmEET_PVS1_T0_19atomic_memory_order(ptr noundef %11, i64 noundef %12, i32 noundef 8)
  br label %14

14:                                               ; preds = %10, %2
  ret void
}