; Function Attrs: mustprogress nounwind uwtable
define hidden void @_ZN14PreservedMarks21restore_and_incrementEPVm(ptr noundef nonnull align 8 dereferenceable(72) %0, ptr noundef %1) local_unnamed_addr #0 align 2 {
  %3 = getelementptr inbounds i8, ptr %0, i64 56
  %4 = load ptr, ptr %3, align 8
  %5 = icmp eq ptr %4, null
  %6 = getelementptr inbounds i8, ptr %0, i64 40
  %7 = load i64, ptr %6, align 8
  %8 = getelementptr inbounds i8, ptr %0, i64 32
  %9 = load i64, ptr %8, align 8
  %10 = add i64 %9, %7
  %11 = select i1 %5, i64 0, i64 %10
  br i1 %5, label %_ZN14PreservedMarks7restoreEv.exit, label %.lr.ph.i

.lr.ph.i:                                         ; preds = %2
  %12 = getelementptr inbounds i8, ptr %0, i64 8
  %13 = getelementptr inbounds i8, ptr %0, i64 48
  %14 = getelementptr inbounds i8, ptr %0, i64 24
  %15 = getelementptr inbounds i8, ptr %0, i64 64
  br label %16

16:                                               ; preds = %_ZN5StackI13PreservedMarkL8MEMFLAGS5EE3popEv.exit.i, %.lr.ph.i
  %17 = phi ptr [ %4, %.lr.ph.i ], [ %43, %_ZN5StackI13PreservedMarkL8MEMFLAGS5EE3popEv.exit.i ]
  %18 = load i64, ptr %8, align 8
  %19 = add i64 %18, -1
  store i64 %19, ptr %8, align 8
  %20 = getelementptr inbounds %class.PreservedMark, ptr %17, i64 %19
  %.sroa.0.0.copyload.i.i = load ptr, ptr %20, align 8
  %.sroa.2.0..sroa_idx.i.i = getelementptr inbounds i8, ptr %20, i64 8
  %.sroa.2.0.copyload.i.i = load i64, ptr %.sroa.2.0..sroa_idx.i.i, align 8
  %21 = icmp eq i64 %19, 0
  br i1 %21, label %22, label %_ZN5StackI13PreservedMarkL8MEMFLAGS5EE3popEv.exit.i

22:                                               ; preds = %16
  %23 = load i64, ptr %12, align 8
  %24 = shl i64 %23, 4
  %25 = getelementptr inbounds i8, ptr %17, i64 %24
  %26 = load ptr, ptr %25, align 8
  %27 = load i64, ptr %13, align 8
  %28 = load i64, ptr %14, align 8
  %29 = icmp ult i64 %27, %28
  br i1 %29, label %30, label %34

30:                                               ; preds = %22
  %31 = load ptr, ptr %15, align 8
  store ptr %31, ptr %25, align 8
  store ptr %17, ptr %15, align 8
  %32 = load i64, ptr %13, align 8
  %33 = add i64 %32, 1
  store i64 %33, ptr %13, align 8
  br label %_ZN5StackI13PreservedMarkL8MEMFLAGS5EE11pop_segmentEv.exit.i.i

34:                                               ; preds = %22
  %35 = or disjoint i64 %24, 8
  %36 = load ptr, ptr %0, align 8
  %37 = getelementptr inbounds i8, ptr %36, i64 8
  %38 = load ptr, ptr %37, align 8
  tail call void %38(ptr noundef nonnull align 8 dereferenceable(72) %0, ptr noundef nonnull %17, i64 noundef %35) #7
  br label %_ZN5StackI13PreservedMarkL8MEMFLAGS5EE11pop_segmentEv.exit.i.i

_ZN5StackI13PreservedMarkL8MEMFLAGS5EE11pop_segmentEv.exit.i.i: ; preds = %34, %30
  %39 = icmp eq ptr %26, null
  store ptr %26, ptr %3, align 8
  %40 = load i64, ptr %12, align 8
  store i64 %40, ptr %8, align 8
  %spec.select.i.i.i = select i1 %39, i64 0, i64 %40
  %41 = load i64, ptr %6, align 8
  %42 = sub i64 %41, %spec.select.i.i.i
  store i64 %42, ptr %6, align 8
  br label %_ZN5StackI13PreservedMarkL8MEMFLAGS5EE3popEv.exit.i

_ZN5StackI13PreservedMarkL8MEMFLAGS5EE3popEv.exit.i: ; preds = %_ZN5StackI13PreservedMarkL8MEMFLAGS5EE11pop_segmentEv.exit.i.i, %16
  store volatile i64 %.sroa.2.0.copyload.i.i, ptr %.sroa.0.0.copyload.i.i, align 8
  %43 = load ptr, ptr %3, align 8
  %44 = icmp eq ptr %43, null
  br i1 %44, label %_ZN14PreservedMarks7restoreEv.exit, label %16, !llvm.loop !6

_ZN14PreservedMarks7restoreEv.exit:               ; preds = %_ZN5StackI13PreservedMarkL8MEMFLAGS5EE3popEv.exit.i, %2
  %.not = icmp eq i64 %11, 0
  br i1 %.not, label %47, label %45

45:                                               ; preds = %_ZN14PreservedMarks7restoreEv.exit
  %46 = tail call noundef i64 asm sideeffect "lock xaddq $0,($2)", "=r,0,r,~{cc},~{memory},~{dirflag},~{fpsr},~{flags}"(i64 %11, ptr %1) #7, !srcloc !9
  br label %47

47:                                               ; preds = %45, %_ZN14PreservedMarks7restoreEv.exit
  ret void
}